target datalayout = "e-m:e-p270:32:32-p271:32:32-p272:64:64-i64:64-i128:128-f80:128-n8:16:32:64-S128"
target triple = "x86_64-pc-linux-gnu"

%struct.gmx_ana_selmethod_t = type { ptr, i32, i32, i32, ptr, ptr, ptr, ptr, ptr, ptr, ptr, ptr, ptr, %struct.gmx_ana_selmethod_help_t }
%struct.gmx_ana_selmethod_help_t = type { ptr, ptr, i32, ptr }
%struct.gmx_ana_selvalue_t = type { i32, i32, %union.anon, i32 }
%union.anon = type { ptr }
%struct.t_methoddata_pos = type { ptr, %struct.gmx_ana_index_t, ptr, i8, ptr, i32 }
%struct.gmx_ana_index_t = type { i32, ptr, i32 }
%"class.gmx::SelectionTreeElement" = type { i32, %struct.gmx_ana_selvalue_t, ptr, i32, %union.anon.2, ptr, ptr, %"class.std::shared_ptr", %"class.std::shared_ptr", %"class.std::__cxx11::basic_string", %"struct.gmx::SelectionLocation" }
%union.anon.2 = type { %struct.anon }
%struct.anon = type { ptr, ptr, ptr, ptr }
%"class.std::shared_ptr" = type { %"class.std::__shared_ptr" }
%"class.std::__shared_ptr" = type { ptr, %"class.std::__shared_count" }
%"class.std::__shared_count" = type { ptr }
%"class.std::__cxx11::basic_string" = type { %"struct.std::__cxx11::basic_string<char>::_Alloc_hider", i64, %union.anon.4 }
%"struct.std::__cxx11::basic_string<char>::_Alloc_hider" = type { ptr }
%union.anon.4 = type { i64, [8 x i8] }
%"struct.gmx::SelectionLocation" = type { i32, i32 }

; Function Attrs: mustprogress uwtable
define internal void @_ZL20set_pos_method_flagsP19gmx_ana_selmethod_tP16t_methoddata_pos(ptr noundef %0, ptr noundef %1) #0 {
  %3 = alloca ptr, align 8
  %4 = alloca ptr, align 8
  %5 = alloca i8, align 1
  store ptr %0, ptr %3, align 8, !tbaa !68
  store ptr %1, ptr %4, align 8, !tbaa !11
  call void @llvm.lifetime.start.p0(i64 1, ptr %5) #6
  %6 = load ptr, ptr %4, align 8, !tbaa !11
  %7 = getelementptr inbounds nuw %struct.t_methoddata_pos, ptr %6, i32 0, i32 5
  %8 = load i32, ptr %7, align 8, !tbaa !23
  %9 = icmp ne i32 %8, -1
  br i1 %9, label %10, label %16

10:                                               ; preds = %2
  %11 = load ptr, ptr %4, align 8, !tbaa !11
  %12 = getelementptr inbounds nuw %struct.t_methoddata_pos, ptr %11, i32 0, i32 5
  %13 = load i32, ptr %12, align 8, !tbaa !23
  %14 = and i32 %13, 128
  %15 = icmp ne i32 %14, 0
  br label %16

16:                                               ; preds = %10, %2
  %17 = phi i1 [ false, %2 ], [ %15, %10 ]
  %18 = zext i1 %17 to i8
  store i8 %18, ptr %5, align 1, !tbaa !70
  %19 = load ptr, ptr %4, align 8, !tbaa !11
  %20 = getelementptr inbounds nuw %struct.t_methoddata_pos, ptr %19, i32 0, i32 4
  %21 = load ptr, ptr %20, align 8, !tbaa !22
  %22 = load i8, ptr %5, align 1, !tbaa !70, !range !48, !noundef !49
  %23 = trunc i8 %22 to i1
  %24 = call noundef i32 @_ZN3gmx29PositionCalculationCollection27requiredTopologyInfoForTypeEPKcb(ptr noundef %21, i1 noundef zeroext %23)
  switch i32 %24, label %39 [
    i32 2, label %25
    i32 1, label %34
    i32 0, label %39
  ]

25:                                               ; preds = %16
  %26 = load ptr, ptr %3, align 8, !tbaa !68
  %27 = getelementptr inbounds nuw %struct.gmx_ana_selmethod_t, ptr %26, i32 0, i32 2
  %28 = load i32, ptr %27, align 4, !tbaa !71
  %29 = or i32 %28, 2
  store i32 %29, ptr %27, align 4, !tbaa !71
  %30 = load ptr, ptr %3, align 8, !tbaa !68
  %31 = getelementptr inbounds nuw %struct.gmx_ana_selmethod_t, ptr %30, i32 0, i32 2
  %32 = load i32, ptr %31, align 4, !tbaa !71
  %33 = or i32 %32, 1
  store i32 %33, ptr %31, align 4, !tbaa !71
  br label %39

34:                                               ; preds = %16
  %35 = load ptr, ptr %3, align 8, !tbaa !68
  %36 = getelementptr inbounds nuw %struct.gmx_ana_selmethod_t, ptr %35, i32 0, i32 2
  %37 = load i32, ptr %36, align 4, !tbaa !71
  %38 = or i32 %37, 1
  store i32 %38, ptr %36, align 4, !tbaa !71
  br label %39

39:                                               ; preds = %16, %16, %34, %25
  call void @llvm.lifetime.end.p0(i64 1, ptr %5) #6
  ret void
}

; Function Attrs: mustprogress uwtable
define void @_Z27_gmx_selelem_set_kwpos_typePN3gmx20SelectionTreeElementEPKc(ptr noundef %0, ptr noundef %1) #0 {
  %3 = alloca ptr, align 8
  %4 = alloca ptr, align 8
  %5 = alloca ptr, align 8
  %6 = alloca i32, align 4
  store ptr %0, ptr %3, align 8, !tbaa !50
  store ptr %1, ptr %4, align 8, !tbaa !43
  call void @llvm.lifetime.start.p0(i64 8, ptr %5) #6
  %7 = load ptr, ptr %3, align 8, !tbaa !50
  %8 = getelementptr inbounds nuw %"class.gmx::SelectionTreeElement", ptr %7, i32 0, i32 4
  %9 = getelementptr inbounds nuw %struct.anon, ptr %8, i32 0, i32 1
  %10 = load ptr, ptr %9, align 8, !tbaa !12
  store ptr %10, ptr %5, align 8, !tbaa !11
  %11 = load ptr, ptr %3, align 8, !tbaa !50
  %12 = getelementptr inbounds nuw %"class.gmx::SelectionTreeElement", ptr %11, i32 0, i32 0
  %13 = load i32, ptr %12, align 8, !tbaa !52
  %14 = icmp ne i32 %13, 1
  br i1 %14, label %30, label %15

15:                                               ; preds = %2
  %16 = load ptr, ptr %3, align 8, !tbaa !50
  %17 = getelementptr inbounds nuw %"class.gmx::SelectionTreeElement", ptr %16, i32 0, i32 4
  %18 = getelementptr inbounds nuw %struct.anon, ptr %17, i32 0, i32 0
  %19 = load ptr, ptr %18, align 8, !tbaa !12
  %20 = icmp ne ptr %19, null
  br i1 %20, label %21, label %30

21:                                               ; preds = %15
  %22 = load ptr, ptr %3, align 8, !tbaa !50
  %23 = getelementptr inbounds nuw %"class.gmx::SelectionTreeElement", ptr %22, i32 0, i32 4
  %24 = getelementptr inbounds nuw %struct.anon, ptr %23, i32 0, i32 0
  %25 = load ptr, ptr %24, align 8, !tbaa !12
  %26 = getelementptr inbounds nuw %struct.gmx_ana_selmethod_t, ptr %25, i32 0, i32 0
  %27 = load ptr, ptr %26, align 8, !tbaa !64
  %28 = load ptr, ptr @sm_keyword_pos, align 8, !tbaa !64
  %29 = icmp ne ptr %27, %28
  br i1 %29, label %30, label %31

30:                                               ; preds = %21, %15, %2
  store i32 1, ptr %6, align 4
  br label %50

31:                                               ; preds = %21
  %32 = load ptr, ptr %5, align 8, !tbaa !11
  %33 = getelementptr inbounds nuw %struct.t_methoddata_pos, ptr %32, i32 0, i32 4
  %34 = load ptr, ptr %33, align 8, !tbaa !22
  %35 = icmp ne ptr %34, null
  br i1 %35, label %49, label %36

36:                                               ; preds = %31
  %37 = load ptr, ptr %4, align 8, !tbaa !43
  %38 = icmp ne ptr %37, null
  br i1 %38, label %39, label %49

39:                                               ; preds = %36
  %40 = load ptr, ptr %4, align 8, !tbaa !43
  %41 = call noundef ptr @_Z10gmx_strdupPKc(ptr noundef %40)
  %42 = load ptr, ptr %5, align 8, !tbaa !11
  %43 = getelementptr inbounds nuw %struct.t_methoddata_pos, ptr %42, i32 0, i32 4
  store ptr %41, ptr %43, align 8, !tbaa !22
  %44 = load ptr, ptr %3, align 8, !tbaa !50
  %45 = getelementptr inbounds nuw %"class.gmx::SelectionTreeElement", ptr %44, i32 0, i32 4
  %46 = getelementptr inbounds nuw %struct.anon, ptr %45, i32 0, i32 0
  %47 = load ptr, ptr %46, align 8, !tbaa !12
  %48 = load ptr, ptr %5, align 8, !tbaa !11
  call void @_ZL20set_pos_method_flagsP19gmx_ana_selmethod_tP16t_methoddata_pos(ptr noundef %47, ptr noundef %48)
  br label %49

49:                                               ; preds = %39, %36, %31
  store i32 0, ptr %6, align 4
  br label %50

50:                                               ; preds = %49, %30
  call void @llvm.lifetime.end.p0(i64 8, ptr %5) #6
  %51 = load i32, ptr %6, align 4
  switch i32 %51, label %53 [
    i32 0, label %52
    i32 1, label %52
  ]

52:                                               ; preds = %50, %50
  ret void

53:                                               ; preds = %50
  unreachable
}