; Function Attrs: mustprogress uwtable
define void @_Z27_gmx_selelem_set_kwpos_typePN3gmx20SelectionTreeElementEPKc(ptr noundef readonly captures(none) %0, ptr noundef %1) local_unnamed_addr #0 {
  %3 = getelementptr inbounds nuw i8, ptr %0, i64 48
  %4 = getelementptr inbounds nuw i8, ptr %0, i64 56
  %5 = load ptr, ptr %4, align 8, !tbaa !4
  %6 = load i32, ptr %0, align 8, !tbaa !33
  %.not = icmp eq i32 %6, 1
  br i1 %.not, label %7, label %_ZL20set_pos_method_flagsP19gmx_ana_selmethod_tP16t_methoddata_pos.exit

7:                                                ; preds = %2
  %8 = load ptr, ptr %3, align 8, !tbaa !4
  %.not12 = icmp eq ptr %8, null
  br i1 %.not12, label %_ZL20set_pos_method_flagsP19gmx_ana_selmethod_tP16t_methoddata_pos.exit, label %9

9:                                                ; preds = %7
  %10 = load ptr, ptr %8, align 8, !tbaa !47
  %11 = load ptr, ptr @sm_keyword_pos, align 8, !tbaa !47
  %.not13 = icmp eq ptr %10, %11
  br i1 %.not13, label %12, label %_ZL20set_pos_method_flagsP19gmx_ana_selmethod_tP16t_methoddata_pos.exit

12:                                               ; preds = %9
  %13 = getelementptr inbounds nuw i8, ptr %5, i64 48
  %14 = load ptr, ptr %13, align 8, !tbaa !18
  %15 = icmp eq ptr %14, null
  %16 = icmp ne ptr %1, null
  %or.cond = and i1 %16, %15
  br i1 %or.cond, label %17, label %_ZL20set_pos_method_flagsP19gmx_ana_selmethod_tP16t_methoddata_pos.exit

17:                                               ; preds = %12
  %18 = tail call noundef ptr @_Z10gmx_strdupPKc(ptr noundef nonnull %1)
  store ptr %18, ptr %13, align 8, !tbaa !18
  %19 = load ptr, ptr %3, align 8, !tbaa !4
  %20 = getelementptr i8, ptr %5, i64 56
  %.val14 = load i32, ptr %20, align 8, !tbaa !19
  %.not.i = icmp ne i32 %.val14, -1
  %21 = and i32 %.val14, 128
  %22 = icmp ne i32 %21, 0
  %23 = and i1 %.not.i, %22
  %24 = tail call noundef i32 @_ZN3gmx29PositionCalculationCollection27requiredTopologyInfoForTypeEPKcb(ptr noundef %18, i1 noundef zeroext %23)
  switch i32 %24, label %_ZL20set_pos_method_flagsP19gmx_ana_selmethod_tP16t_methoddata_pos.exit [
    i32 2, label %.sink.split.i
    i32 1, label %25
  ]

25:                                               ; preds = %17
  br label %.sink.split.i

.sink.split.i:                                    ; preds = %25, %17
  %.sink3.i = phi i32 [ 1, %25 ], [ 3, %17 ]
  %26 = getelementptr inbounds nuw i8, ptr %19, i64 12
  %27 = load i32, ptr %26, align 4, !tbaa !53
  %28 = or i32 %27, %.sink3.i
  store i32 %28, ptr %26, align 4, !tbaa !53
  br label %_ZL20set_pos_method_flagsP19gmx_ana_selmethod_tP16t_methoddata_pos.exit

_ZL20set_pos_method_flagsP19gmx_ana_selmethod_tP16t_methoddata_pos.exit: ; preds = %.sink.split.i, %17, %12, %2, %7, %9
  ret void
}